target datalayout = "e-m:e-p270:32:32-p271:32:32-p272:64:64-i64:64-i128:128-f80:128-n8:16:32:64-S128"
target triple = "x86_64-pc-linux-gnu"

%struct.pai_s = type { ptr, ptr, ptr, ptr, ptr, ptr, ptr }
%struct.edata_s = type { i64, ptr, %union.anon, ptr, i64, %union.anon.0, %union.anon.2 }
%union.anon = type { i64 }
%union.anon.0 = type { %union.anon.1 }
%union.anon.1 = type { %struct.edata_heap_link_t }
%struct.edata_heap_link_t = type { %struct.phn_link_s }
%struct.phn_link_s = type { ptr, ptr, ptr }
%union.anon.2 = type { %struct.slab_data_s }
%struct.slab_data_s = type { [8 x i64] }
%struct.anon = type { ptr, ptr }
%struct.edata_list_active_t = type { %struct.anon.4 }
%struct.anon.4 = type { ptr }

; Function Attrs: inlinehint nounwind uwtable
define internal void @pai_dalloc(ptr noundef %0, ptr noundef %1, ptr noundef %2, ptr noundef %3) #2 {
  %5 = alloca ptr, align 8
  %6 = alloca ptr, align 8
  %7 = alloca ptr, align 8
  %8 = alloca ptr, align 8
  store ptr %0, ptr %5, align 8, !tbaa !4
  store ptr %1, ptr %6, align 8, !tbaa !9
  store ptr %2, ptr %7, align 8, !tbaa !20
  store ptr %3, ptr %8, align 8, !tbaa !16
  %9 = load ptr, ptr %6, align 8, !tbaa !9
  %10 = getelementptr inbounds nuw %struct.pai_s, ptr %9, i32 0, i32 4
  %11 = load ptr, ptr %10, align 8, !tbaa !31
  %12 = load ptr, ptr %5, align 8, !tbaa !4
  %13 = load ptr, ptr %6, align 8, !tbaa !9
  %14 = load ptr, ptr %7, align 8, !tbaa !20
  %15 = load ptr, ptr %8, align 8, !tbaa !16
  call void %11(ptr noundef %12, ptr noundef %13, ptr noundef %14, ptr noundef %15)
  ret void
}

; Function Attrs: inlinehint nounwind uwtable
define internal void @edata_list_active_remove(ptr noundef %0, ptr noundef %1) #2 {
  %3 = alloca ptr, align 8
  %4 = alloca ptr, align 8
  store ptr %0, ptr %3, align 8, !tbaa !13
  store ptr %1, ptr %4, align 8, !tbaa !20
  br label %5

5:                                                ; preds = %2
  %6 = load ptr, ptr %3, align 8, !tbaa !13
  %7 = getelementptr inbounds nuw %struct.edata_list_active_t, ptr %6, i32 0, i32 0
  %8 = getelementptr inbounds nuw %struct.anon.4, ptr %7, i32 0, i32 0
  %9 = load ptr, ptr %8, align 8, !tbaa !27
  %10 = load ptr, ptr %4, align 8, !tbaa !20
  %11 = icmp eq ptr %9, %10
  br i1 %11, label %12, label %23

12:                                               ; preds = %5
  %13 = load ptr, ptr %3, align 8, !tbaa !13
  %14 = getelementptr inbounds nuw %struct.edata_list_active_t, ptr %13, i32 0, i32 0
  %15 = getelementptr inbounds nuw %struct.anon.4, ptr %14, i32 0, i32 0
  %16 = load ptr, ptr %15, align 8, !tbaa !27
  %17 = getelementptr inbounds nuw %struct.edata_s, ptr %16, i32 0, i32 5
  %18 = getelementptr inbounds nuw %struct.anon, ptr %17, i32 0, i32 0
  %19 = load ptr, ptr %18, align 8, !tbaa !26
  %20 = load ptr, ptr %3, align 8, !tbaa !13
  %21 = getelementptr inbounds nuw %struct.edata_list_active_t, ptr %20, i32 0, i32 0
  %22 = getelementptr inbounds nuw %struct.anon.4, ptr %21, i32 0, i32 0
  store ptr %19, ptr %22, align 8, !tbaa !27
  br label %23

23:                                               ; preds = %12, %5
  %24 = load ptr, ptr %3, align 8, !tbaa !13
  %25 = getelementptr inbounds nuw %struct.edata_list_active_t, ptr %24, i32 0, i32 0
  %26 = getelementptr inbounds nuw %struct.anon.4, ptr %25, i32 0, i32 0
  %27 = load ptr, ptr %26, align 8, !tbaa !27
  %28 = load ptr, ptr %4, align 8, !tbaa !20
  %29 = icmp ne ptr %27, %28
  br i1 %29, label %30, label %86

30:                                               ; preds = %23
  br label %31

31:                                               ; preds = %30
  %32 = load ptr, ptr %4, align 8, !tbaa !20
  %33 = getelementptr inbounds nuw %struct.edata_s, ptr %32, i32 0, i32 5
  %34 = getelementptr inbounds nuw %struct.anon, ptr %33, i32 0, i32 0
  %35 = load ptr, ptr %34, align 8, !tbaa !26
  %36 = getelementptr inbounds nuw %struct.edata_s, ptr %35, i32 0, i32 5
  %37 = getelementptr inbounds nuw %struct.anon, ptr %36, i32 0, i32 1
  %38 = load ptr, ptr %37, align 8, !tbaa !26
  %39 = load ptr, ptr %4, align 8, !tbaa !20
  %40 = getelementptr inbounds nuw %struct.edata_s, ptr %39, i32 0, i32 5
  %41 = getelementptr inbounds nuw %struct.anon, ptr %40, i32 0, i32 1
  %42 = load ptr, ptr %41, align 8, !tbaa !26
  %43 = getelementptr inbounds nuw %struct.edata_s, ptr %42, i32 0, i32 5
  %44 = getelementptr inbounds nuw %struct.anon, ptr %43, i32 0, i32 0
  store ptr %38, ptr %44, align 8, !tbaa !26
  %45 = load ptr, ptr %4, align 8, !tbaa !20
  %46 = getelementptr inbounds nuw %struct.edata_s, ptr %45, i32 0, i32 5
  %47 = getelementptr inbounds nuw %struct.anon, ptr %46, i32 0, i32 1
  %48 = load ptr, ptr %47, align 8, !tbaa !26
  %49 = load ptr, ptr %4, align 8, !tbaa !20
  %50 = getelementptr inbounds nuw %struct.edata_s, ptr %49, i32 0, i32 5
  %51 = getelementptr inbounds nuw %struct.anon, ptr %50, i32 0, i32 0
  %52 = load ptr, ptr %51, align 8, !tbaa !26
  %53 = getelementptr inbounds nuw %struct.edata_s, ptr %52, i32 0, i32 5
  %54 = getelementptr inbounds nuw %struct.anon, ptr %53, i32 0, i32 1
  store ptr %48, ptr %54, align 8, !tbaa !26
  %55 = load ptr, ptr %4, align 8, !tbaa !20
  %56 = getelementptr inbounds nuw %struct.edata_s, ptr %55, i32 0, i32 5
  %57 = getelementptr inbounds nuw %struct.anon, ptr %56, i32 0, i32 1
  %58 = load ptr, ptr %57, align 8, !tbaa !26
  %59 = getelementptr inbounds nuw %struct.edata_s, ptr %58, i32 0, i32 5
  %60 = getelementptr inbounds nuw %struct.anon, ptr %59, i32 0, i32 0
  %61 = load ptr, ptr %60, align 8, !tbaa !26
  %62 = load ptr, ptr %4, align 8, !tbaa !20
  %63 = getelementptr inbounds nuw %struct.edata_s, ptr %62, i32 0, i32 5
  %64 = getelementptr inbounds nuw %struct.anon, ptr %63, i32 0, i32 1
  store ptr %61, ptr %64, align 8, !tbaa !26
  %65 = load ptr, ptr %4, align 8, !tbaa !20
  %66 = getelementptr inbounds nuw %struct.edata_s, ptr %65, i32 0, i32 5
  %67 = getelementptr inbounds nuw %struct.anon, ptr %66, i32 0, i32 0
  %68 = load ptr, ptr %67, align 8, !tbaa !26
  %69 = load ptr, ptr %4, align 8, !tbaa !20
  %70 = getelementptr inbounds nuw %struct.edata_s, ptr %69, i32 0, i32 5
  %71 = getelementptr inbounds nuw %struct.anon, ptr %70, i32 0, i32 0
  %72 = load ptr, ptr %71, align 8, !tbaa !26
  %73 = getelementptr inbounds nuw %struct.edata_s, ptr %72, i32 0, i32 5
  %74 = getelementptr inbounds nuw %struct.anon, ptr %73, i32 0, i32 1
  %75 = load ptr, ptr %74, align 8, !tbaa !26
  %76 = getelementptr inbounds nuw %struct.edata_s, ptr %75, i32 0, i32 5
  %77 = getelementptr inbounds nuw %struct.anon, ptr %76, i32 0, i32 0
  store ptr %68, ptr %77, align 8, !tbaa !26
  %78 = load ptr, ptr %4, align 8, !tbaa !20
  %79 = load ptr, ptr %4, align 8, !tbaa !20
  %80 = getelementptr inbounds nuw %struct.edata_s, ptr %79, i32 0, i32 5
  %81 = getelementptr inbounds nuw %struct.anon, ptr %80, i32 0, i32 1
  %82 = load ptr, ptr %81, align 8, !tbaa !26
  %83 = getelementptr inbounds nuw %struct.edata_s, ptr %82, i32 0, i32 5
  %84 = getelementptr inbounds nuw %struct.anon, ptr %83, i32 0, i32 0
  store ptr %78, ptr %84, align 8, !tbaa !26
  br label %85

85:                                               ; preds = %31
  br label %92

86:                                               ; preds = %23
  br label %87

87:                                               ; preds = %86
  %88 = load ptr, ptr %3, align 8, !tbaa !13
  %89 = getelementptr inbounds nuw %struct.edata_list_active_t, ptr %88, i32 0, i32 0
  %90 = getelementptr inbounds nuw %struct.anon.4, ptr %89, i32 0, i32 0
  store ptr null, ptr %90, align 8, !tbaa !27
  br label %91

91:                                               ; preds = %87
  br label %92

92:                                               ; preds = %91, %85
  br label %93

93:                                               ; preds = %92
  ret void
}

; Function Attrs: inlinehint nounwind uwtable
define internal ptr @edata_list_active_first(ptr noundef %0) #2 {
  %2 = alloca ptr, align 8
  store ptr %0, ptr %2, align 8, !tbaa !13
  %3 = load ptr, ptr %2, align 8, !tbaa !13
  %4 = getelementptr inbounds nuw %struct.edata_list_active_t, ptr %3, i32 0, i32 0
  %5 = getelementptr inbounds nuw %struct.anon.4, ptr %4, i32 0, i32 0
  %6 = load ptr, ptr %5, align 8, !tbaa !27
  ret ptr %6
}

; Function Attrs: nounwind uwtable
define hidden void @je_pai_dalloc_batch_default(ptr noundef %0, ptr noundef %1, ptr noundef %2, ptr noundef %3) #0 {
  %5 = alloca ptr, align 8
  %6 = alloca ptr, align 8
  %7 = alloca ptr, align 8
  %8 = alloca ptr, align 8
  %9 = alloca ptr, align 8
  %10 = alloca i8, align 1
  store ptr %0, ptr %5, align 8, !tbaa !4
  store ptr %1, ptr %6, align 8, !tbaa !9
  store ptr %2, ptr %7, align 8, !tbaa !13
  store ptr %3, ptr %8, align 8, !tbaa !16
  call void @llvm.lifetime.start.p0(i64 8, ptr %9) #3
  br label %11

11:                                               ; preds = %15, %4
  %12 = load ptr, ptr %7, align 8, !tbaa !13
  %13 = call ptr @edata_list_active_first(ptr noundef %12)
  store ptr %13, ptr %9, align 8, !tbaa !20
  %14 = icmp ne ptr %13, null
  br i1 %14, label %15, label %31

15:                                               ; preds = %11
  call void @llvm.lifetime.start.p0(i64 1, ptr %10) #3
  store i8 0, ptr %10, align 1, !tbaa !14
  %16 = load ptr, ptr %7, align 8, !tbaa !13
  %17 = load ptr, ptr %9, align 8, !tbaa !20
  call void @edata_list_active_remove(ptr noundef %16, ptr noundef %17)
  %18 = load ptr, ptr %5, align 8, !tbaa !4
  %19 = load ptr, ptr %6, align 8, !tbaa !9
  %20 = load ptr, ptr %9, align 8, !tbaa !20
  call void @pai_dalloc(ptr noundef %18, ptr noundef %19, ptr noundef %20, ptr noundef %10)
  %21 = load i8, ptr %10, align 1, !tbaa !14, !range !18, !noundef !19
  %22 = trunc i8 %21 to i1
  %23 = zext i1 %22 to i32
  %24 = load ptr, ptr %8, align 8, !tbaa !16
  %25 = load i8, ptr %24, align 1, !tbaa !14, !range !18, !noundef !19
  %26 = trunc i8 %25 to i1
  %27 = zext i1 %26 to i32
  %28 = or i32 %27, %23
  %29 = icmp ne i32 %28, 0
  %30 = zext i1 %29 to i8
  store i8 %30, ptr %24, align 1, !tbaa !14
  call void @llvm.lifetime.end.p0(i64 1, ptr %10) #3
  br label %11, !llvm.loop !30

31:                                               ; preds = %11
  call void @llvm.lifetime.end.p0(i64 8, ptr %9) #3
  ret void
}