; Function Attrs: nounwind uwtable
define hidden void @je_pai_dalloc_batch_default(ptr noundef %0, ptr noundef %1, ptr noundef captures(none) %2, ptr noundef captures(none) %3) local_unnamed_addr #0 {
  %5 = alloca i8, align 1
  %.val7 = load ptr, ptr %2, align 8, !tbaa !14
  %.not8 = icmp eq ptr %.val7, null
  br i1 %.not8, label %._crit_edge, label %.lr.ph

.lr.ph:                                           ; preds = %4
  %6 = getelementptr inbounds nuw i8, ptr %1, i64 32
  br label %7

7:                                                ; preds = %.lr.ph, %edata_list_active_remove.exit
  %.val9 = phi ptr [ %.val7, %.lr.ph ], [ %.val, %edata_list_active_remove.exit ]
  call void @llvm.lifetime.start.p0(i64 1, ptr nonnull %5) #3
  store i8 0, ptr %5, align 1, !tbaa !4
  %8 = getelementptr inbounds nuw i8, ptr %.val9, i64 40
  %9 = load ptr, ptr %8, align 8, !tbaa !13
  store ptr %9, ptr %2, align 8, !tbaa !14
  %.not.i = icmp eq ptr %9, %.val9
  br i1 %.not.i, label %27, label %10

10:                                               ; preds = %7
  %11 = getelementptr inbounds nuw i8, ptr %9, i64 48
  %12 = load ptr, ptr %11, align 8, !tbaa !13
  %13 = getelementptr inbounds nuw i8, ptr %.val9, i64 48
  %14 = load ptr, ptr %13, align 8, !tbaa !13
  %15 = getelementptr inbounds nuw i8, ptr %14, i64 40
  store ptr %12, ptr %15, align 8, !tbaa !13
  %16 = load ptr, ptr %13, align 8, !tbaa !13
  %17 = load ptr, ptr %8, align 8, !tbaa !13
  %18 = getelementptr inbounds nuw i8, ptr %17, i64 48
  store ptr %16, ptr %18, align 8, !tbaa !13
  %19 = getelementptr inbounds nuw i8, ptr %16, i64 40
  %20 = load ptr, ptr %19, align 8, !tbaa !13
  store ptr %20, ptr %13, align 8, !tbaa !13
  %21 = load ptr, ptr %8, align 8, !tbaa !13
  %22 = getelementptr inbounds nuw i8, ptr %21, i64 48
  %23 = load ptr, ptr %22, align 8, !tbaa !13
  %24 = getelementptr inbounds nuw i8, ptr %23, i64 40
  store ptr %21, ptr %24, align 8, !tbaa !13
  %25 = load ptr, ptr %13, align 8, !tbaa !13
  %26 = getelementptr inbounds nuw i8, ptr %25, i64 40
  store ptr %.val9, ptr %26, align 8, !tbaa !13
  br label %edata_list_active_remove.exit

27:                                               ; preds = %7
  store ptr null, ptr %2, align 8, !tbaa !14
  br label %edata_list_active_remove.exit

edata_list_active_remove.exit:                    ; preds = %10, %27
  %28 = load ptr, ptr %6, align 8, !tbaa !20
  call void %28(ptr noundef %0, ptr noundef %1, ptr noundef nonnull %.val9, ptr noundef nonnull %5) #3
  %29 = load i8, ptr %5, align 1, !tbaa !4, !range !11, !noundef !12
  %30 = load i8, ptr %3, align 1, !tbaa !4, !range !11, !noundef !12
  %31 = or i8 %30, %29
  store i8 %31, ptr %3, align 1, !tbaa !4
  call void @llvm.lifetime.end.p0(i64 1, ptr nonnull %5) #3
  %.val = load ptr, ptr %2, align 8, !tbaa !14
  %.not = icmp eq ptr %.val, null
  br i1 %.not, label %._crit_edge, label %7, !llvm.loop !21

._crit_edge:                                      ; preds = %edata_list_active_remove.exit, %4
  ret void
}